target datalayout = "e-m:e-p270:32:32-p271:32:32-p272:64:64-i64:64-i128:128-f80:128-n8:16:32:64-S128"
target triple = "x86_64-pc-linux-gnu"

%struct.curl_trc_feat = type { ptr, i32 }
%struct.Curl_llist_node = type { ptr, ptr, ptr, ptr }
%struct.Curl_ssl_scache_peer = type { ptr, ptr, ptr, ptr, %struct.Curl_llist, ptr, ptr, [32 x i8], [32 x i8], i64, i64, i8 }
%struct.Curl_llist = type { ptr, ptr, ptr, i64 }
%struct.Curl_easy = type { i32, i64, i64, ptr, %struct.Curl_llist_node, %struct.Curl_llist_node, i32, i32, %struct.Curl_message, %struct.easy_pollset, %struct.Names, ptr, ptr, ptr, ptr, %struct.SingleRequest, %struct.UserDefined, ptr, ptr, ptr, %struct.Progress, %struct.UrlState, ptr, %struct.PureInfo, %struct.curl_tlssessioninfo }
%struct.Curl_message = type { %struct.Curl_llist_node, %struct.CURLMsg }
%struct.CURLMsg = type { i32, ptr, %union.anon }
%union.anon = type { ptr }
%struct.easy_pollset = type { [5 x i32], i32, [5 x i8] }
%struct.Names = type { ptr, i32 }
%struct.SingleRequest = type <{ i64, i64, i64, i64, %struct.curltime, i32, i32, i32, i32, i64, i32, i32, i8, i8, [2 x i8], i32, ptr, ptr, %struct.bufq, i64, i64, ptr, ptr, %union.anon.0, ptr, i8, i32, [3 x i8] }>
%struct.curltime = type { i64, i32 }
%struct.bufq = type { ptr, ptr, ptr, ptr, i64, i64, i64, i32 }
%union.anon.0 = type { ptr }
%struct.UserDefined = type <{ ptr, ptr, ptr, ptr, ptr, ptr, i64, i64, i64, ptr, ptr, i64, ptr, ptr, ptr, ptr, ptr, ptr, ptr, ptr, ptr, ptr, ptr, ptr, ptr, ptr, ptr, ptr, ptr, ptr, ptr, ptr, ptr, ptr, ptr, i64, i64, i64, i64, i64, i64, i64, i64, i64, ptr, ptr, %struct.curl_mimepart, ptr, ptr, ptr, i64, %struct.ssl_config_data, %struct.ssl_config_data, ptr, i16, i8, i8, %struct.ssl_general_config, i32, i32, i32, [4 x i8], ptr, ptr, i64, i32, i8, i8, i8, i8, ptr, ptr, ptr, i32, [4 x i8], [74 x ptr], [8 x ptr], i32, i32, i32, [4 x i8], ptr, i32, [4 x i8], ptr, ptr, ptr, ptr, ptr, i32, i32, i32, i32, i32, i32, i32, i32, i64, ptr, ptr, i64, ptr, i64, ptr, ptr, ptr, ptr, i32, i16, i16, i16, i8, i8, i8, i8, i8, i8, i8, i8, i64, [6 x i8] }>
%struct.curl_mimepart = type { ptr, ptr, i32, i32, ptr, ptr, ptr, ptr, ptr, ptr, ptr, ptr, ptr, ptr, ptr, i64, %struct.mime_state, ptr, %struct.mime_encoder_state, i64 }
%struct.mime_state = type { i32, ptr, i64 }
%struct.mime_encoder_state = type { i64, i64, i64, [256 x i8] }
%struct.ssl_config_data = type { %struct.ssl_primary_config, i64, ptr, ptr, ptr, ptr, ptr, ptr, ptr, i16 }
%struct.ssl_primary_config = type { ptr, ptr, ptr, ptr, ptr, ptr, ptr, ptr, ptr, ptr, ptr, ptr, ptr, ptr, i8, i32, i8, i8 }
%struct.ssl_general_config = type { i32 }
%struct.Progress = type { i64, %struct.pgrs_dir, %struct.pgrs_dir, i64, i64, i32, i32, i64, i64, i64, i64, i64, i64, i64, i64, i64, %struct.curltime, %struct.curltime, %struct.curltime, %struct.curltime, %struct.curltime, [6 x i64], [6 x %struct.curltime], i32, i8 }
%struct.pgrs_dir = type { i64, i64, i64, %struct.pgrs_measure }
%struct.pgrs_measure = type { %struct.curltime, i64 }
%struct.UrlState = type { %struct.curltime, i64, i64, %struct.dynbuf, ptr, i64, ptr, i32, i32, i32, ptr, i32, i64, i32, ptr, %struct.digestdata, %struct.digestdata, %struct.auth, %struct.auth, %struct.Curl_async, ptr, i8, %struct.curltime, %struct.Curl_tree, %struct.Curl_llist, [15 x %struct.time_node], ptr, ptr, i64, i64, i64, i64, [32 x i8], i64, ptr, ptr, ptr, %struct.urlpieces, ptr, ptr, ptr, ptr, ptr, i64, %struct.dynbuf, %struct.Curl_llist, [2 x %struct.curl_header], ptr, i32, ptr, ptr, %struct.store_netrc, %struct.dynamically_allocated_data, i8, i8, i8, i8, i32 }
%struct.digestdata = type { ptr, ptr, ptr, ptr, ptr, ptr, i32, i8, i8 }
%struct.auth = type { i64, i64, i64, i8 }
%struct.Curl_async = type { ptr, ptr, ptr, ptr, i32, i32, i8 }
%struct.Curl_tree = type { ptr, ptr, ptr, ptr, %struct.curltime, ptr }
%struct.time_node = type { %struct.Curl_llist_node, %struct.curltime, i32 }
%struct.urlpieces = type { ptr, ptr, ptr, ptr, ptr, ptr, ptr, ptr }
%struct.dynbuf = type { ptr, i64, i64, i64 }
%struct.curl_header = type { ptr, ptr, i64, i64, i32, ptr }
%struct.store_netrc = type { %struct.dynbuf, ptr, i8 }
%struct.dynamically_allocated_data = type { ptr, ptr, ptr, ptr, ptr, ptr, ptr, ptr, ptr, ptr, ptr, ptr, ptr, ptr }
%struct.PureInfo = type { i32, i32, i32, i64, i64, i64, i64, i64, i64, i64, ptr, ptr, i64, i32, %struct.ip_quadruple, i32, ptr, i32, %struct.curl_certinfo, i32, i8 }
%struct.ip_quadruple = type { [46 x i8], [46 x i8], i32, i32 }
%struct.curl_certinfo = type { i32, ptr }
%struct.curl_tlssessioninfo = type { i32, ptr }

@Curl_trc_feat_ssls = external global %struct.curl_trc_feat, align 8
@.str.31 = private unnamed_addr constant [27 x i8] c"%s cached session for '%s'\00", align 1
@.str.32 = private unnamed_addr constant [6 x i8] c"Found\00", align 1
@.str.33 = private unnamed_addr constant [3 x i8] c"No\00", align 1

; Function Attrs: nounwind uwtable
define hidden zeroext i1 @Curl_ssl_scache_get_obj(ptr noundef %0, ptr noundef %1, ptr noundef %2, ptr noundef %3) #0 {
  %5 = alloca i1, align 1
  %6 = alloca ptr, align 8
  %7 = alloca ptr, align 8
  %8 = alloca ptr, align 8
  %9 = alloca ptr, align 8
  %10 = alloca ptr, align 8
  %11 = alloca ptr, align 8
  %12 = alloca ptr, align 8
  %13 = alloca i32, align 4
  %14 = alloca i32, align 4
  store ptr %0, ptr %6, align 8, !tbaa !123
  store ptr %1, ptr %7, align 8, !tbaa !53
  store ptr %2, ptr %8, align 8, !tbaa !3
  store ptr %3, ptr %9, align 8, !tbaa !14
  call void @llvm.lifetime.start.p0(i64 8, ptr %10) #6
  %15 = load ptr, ptr %7, align 8, !tbaa !53
  %16 = getelementptr inbounds nuw %struct.Curl_easy, ptr %15, i32 0, i32 21
  %17 = getelementptr inbounds nuw %struct.UrlState, ptr %16, i32 0, i32 10
  %18 = load ptr, ptr %17, align 8, !tbaa !173
  store ptr %18, ptr %10, align 8, !tbaa !31
  call void @llvm.lifetime.start.p0(i64 8, ptr %11) #6
  %19 = load ptr, ptr %6, align 8, !tbaa !123
  %20 = call ptr @Curl_ssl_cf_get_primary_config(ptr noundef %19)
  store ptr %20, ptr %11, align 8, !tbaa !129
  call void @llvm.lifetime.start.p0(i64 8, ptr %12) #6
  store ptr null, ptr %12, align 8, !tbaa !33
  call void @llvm.lifetime.start.p0(i64 4, ptr %13) #6
  %21 = load ptr, ptr %9, align 8, !tbaa !14
  store ptr null, ptr %21, align 8, !tbaa !14
  %22 = load ptr, ptr %10, align 8, !tbaa !31
  %23 = icmp ne ptr %22, null
  br i1 %23, label %25, label %24

24:                                               ; preds = %4
  store i1 false, ptr %5, align 1
  store i32 1, ptr %14, align 4
  br label %87

25:                                               ; preds = %4
  %26 = load ptr, ptr %7, align 8, !tbaa !53
  %27 = load ptr, ptr %10, align 8, !tbaa !31
  %28 = load ptr, ptr %8, align 8, !tbaa !3
  %29 = load ptr, ptr %11, align 8, !tbaa !129
  %30 = call i32 @cf_ssl_find_peer_by_key(ptr noundef %26, ptr noundef %27, ptr noundef %28, ptr noundef %29, ptr noundef %12)
  store i32 %30, ptr %13, align 4, !tbaa !10
  %31 = load i32, ptr %13, align 4, !tbaa !10
  %32 = icmp ne i32 %31, 0
  br i1 %32, label %33, label %34

33:                                               ; preds = %25
  store i1 false, ptr %5, align 1
  store i32 1, ptr %14, align 4
  br label %87

34:                                               ; preds = %25
  %35 = load ptr, ptr %12, align 8, !tbaa !33
  %36 = icmp ne ptr %35, null
  br i1 %36, label %37, label %42

37:                                               ; preds = %34
  %38 = load ptr, ptr %12, align 8, !tbaa !33
  %39 = getelementptr inbounds nuw %struct.Curl_ssl_scache_peer, ptr %38, i32 0, i32 5
  %40 = load ptr, ptr %39, align 8, !tbaa !46
  %41 = load ptr, ptr %9, align 8, !tbaa !14
  store ptr %40, ptr %41, align 8, !tbaa !14
  br label %42

42:                                               ; preds = %37, %34
  br label %43

43:                                               ; preds = %42
  %44 = load ptr, ptr %7, align 8, !tbaa !53
  %45 = icmp ne ptr %44, null
  br i1 %45, label %46, label %79

46:                                               ; preds = %43
  %47 = load ptr, ptr %7, align 8, !tbaa !53
  %48 = getelementptr inbounds nuw %struct.Curl_easy, ptr %47, i32 0, i32 16
  %49 = getelementptr inbounds nuw %struct.UserDefined, ptr %48, i32 0, i32 119
  %50 = load i64, ptr %49, align 2
  %51 = lshr i64 %50, 31
  %52 = and i64 %51, 1
  %53 = trunc i64 %52 to i32
  %54 = icmp ne i32 %53, 0
  br i1 %54, label %55, label %79

55:                                               ; preds = %46
  %56 = load ptr, ptr %7, align 8, !tbaa !53
  %57 = getelementptr inbounds nuw %struct.Curl_easy, ptr %56, i32 0, i32 21
  %58 = getelementptr inbounds nuw %struct.UrlState, ptr %57, i32 0, i32 50
  %59 = load ptr, ptr %58, align 8, !tbaa !176
  %60 = icmp ne ptr %59, null
  br i1 %60, label %61, label %69

61:                                               ; preds = %55
  %62 = load ptr, ptr %7, align 8, !tbaa !53
  %63 = getelementptr inbounds nuw %struct.Curl_easy, ptr %62, i32 0, i32 21
  %64 = getelementptr inbounds nuw %struct.UrlState, ptr %63, i32 0, i32 50
  %65 = load ptr, ptr %64, align 8, !tbaa !176
  %66 = getelementptr inbounds nuw %struct.curl_trc_feat, ptr %65, i32 0, i32 1
  %67 = load i32, ptr %66, align 8, !tbaa !177
  %68 = icmp sge i32 %67, 1
  br i1 %68, label %69, label %79

69:                                               ; preds = %61, %55
  %70 = load i32, ptr getelementptr inbounds nuw (%struct.curl_trc_feat, ptr @Curl_trc_feat_ssls, i32 0, i32 1), align 8, !tbaa !177
  %71 = icmp sge i32 %70, 1
  br i1 %71, label %72, label %79

72:                                               ; preds = %69
  %73 = load ptr, ptr %7, align 8, !tbaa !53
  %74 = load ptr, ptr %9, align 8, !tbaa !14
  %75 = load ptr, ptr %74, align 8, !tbaa !14
  %76 = icmp ne ptr %75, null
  %77 = select i1 %76, ptr @.str.32, ptr @.str.33
  %78 = load ptr, ptr %8, align 8, !tbaa !3
  call void (ptr, ptr, ...) @Curl_trc_ssls(ptr noundef %73, ptr noundef @.str.31, ptr noundef %77, ptr noundef %78)
  br label %79

79:                                               ; preds = %72, %69, %61, %46, %43
  br label %80

80:                                               ; preds = %79
  br label %81

81:                                               ; preds = %80
  %82 = load ptr, ptr %9, align 8, !tbaa !14
  %83 = load ptr, ptr %82, align 8, !tbaa !14
  %84 = icmp ne ptr %83, null
  %85 = xor i1 %84, true
  %86 = xor i1 %85, true
  store i1 %86, ptr %5, align 1
  store i32 1, ptr %14, align 4
  br label %87

87:                                               ; preds = %81, %33, %24
  call void @llvm.lifetime.end.p0(i64 4, ptr %13) #6
  call void @llvm.lifetime.end.p0(i64 8, ptr %12) #6
  call void @llvm.lifetime.end.p0(i64 8, ptr %11) #6
  call void @llvm.lifetime.end.p0(i64 8, ptr %10) #6
  %88 = load i1, ptr %5, align 1
  ret i1 %88
}