; Function Attrs: nounwind uwtable
define hidden zeroext i1 @Curl_ssl_scache_get_obj(ptr noundef %0, ptr noundef %1, ptr noundef %2, ptr noundef captures(none) initializes((0, 8)) %3) local_unnamed_addr #0 {
  %5 = alloca ptr, align 8
  %6 = getelementptr inbounds nuw i8, ptr %1, i64 3232
  %7 = load ptr, ptr %6, align 8, !tbaa !155
  %8 = tail call ptr @Curl_ssl_cf_get_primary_config(ptr noundef %0) #9
  call void @llvm.lifetime.start.p0(i64 8, ptr nonnull %5) #9
  store ptr null, ptr %3, align 8, !tbaa !3
  %.not = icmp eq ptr %7, null
  br i1 %.not, label %36, label %9

9:                                                ; preds = %4
  %10 = call fastcc i32 @cf_ssl_find_peer_by_key(ptr noundef nonnull %1, ptr noundef nonnull %7, ptr noundef %2, ptr noundef %8, ptr noundef %5)
  %.not23 = icmp eq i32 %10, 0
  br i1 %.not23, label %11, label %36

11:                                               ; preds = %9
  %12 = load ptr, ptr %5, align 8, !tbaa !161
  %.not24 = icmp eq ptr %12, null
  br i1 %.not24, label %16, label %13

13:                                               ; preds = %11
  %14 = getelementptr inbounds nuw i8, ptr %12, i64 64
  %15 = load ptr, ptr %14, align 8, !tbaa !37
  store ptr %15, ptr %3, align 8, !tbaa !3
  br label %16

16:                                               ; preds = %13, %11
  %17 = getelementptr inbounds nuw i8, ptr %1, i64 2658
  %18 = load i64, ptr %17, align 2
  %19 = and i64 %18, 2147483648
  %.not26 = icmp eq i64 %19, 0
  br i1 %.not26, label %33, label %20

20:                                               ; preds = %16
  %21 = getelementptr inbounds nuw i8, ptr %1, i64 4864
  %22 = load ptr, ptr %21, align 8, !tbaa !156
  %.not27 = icmp eq ptr %22, null
  br i1 %.not27, label %29, label %23

23:                                               ; preds = %20
  %24 = getelementptr inbounds nuw i8, ptr %22, i64 8
  %25 = load i32, ptr %24, align 8, !tbaa !157
  %26 = icmp sgt i32 %25, 0
  %27 = load i32, ptr getelementptr inbounds nuw (i8, ptr @Curl_trc_feat_ssls, i64 8), align 8
  %28 = icmp sgt i32 %27, 0
  %or.cond = select i1 %26, i1 %28, i1 false
  br i1 %or.cond, label %30, label %33

29:                                               ; preds = %20
  %.old = load i32, ptr getelementptr inbounds nuw (i8, ptr @Curl_trc_feat_ssls, i64 8), align 8, !tbaa !157
  %.old1 = icmp sgt i32 %.old, 0
  br i1 %.old1, label %30, label %33

30:                                               ; preds = %23, %29
  %31 = load ptr, ptr %3, align 8, !tbaa !3
  %.not28 = icmp eq ptr %31, null
  %32 = select i1 %.not28, ptr @.str.33, ptr @.str.32
  tail call void (ptr, ptr, ...) @Curl_trc_ssls(ptr noundef nonnull %1, ptr noundef nonnull @.str.31, ptr noundef nonnull %32, ptr noundef %2) #9
  br label %33

33:                                               ; preds = %30, %29, %23, %16
  %34 = load ptr, ptr %3, align 8, !tbaa !3
  %35 = icmp ne ptr %34, null
  br label %36

36:                                               ; preds = %9, %4, %33
  %.0 = phi i1 [ %35, %33 ], [ false, %4 ], [ false, %9 ]
  call void @llvm.lifetime.end.p0(i64 8, ptr nonnull %5) #9
  ret i1 %.0
}